target datalayout = "e-m:e-p270:32:32-p271:32:32-p272:64:64-i64:64-i128:128-f80:128-n8:16:32:64-S128"
target triple = "x86_64-pc-linux-gnu"

%struct.xorkey_st = type { [32 x i8], [32 x i8], i32, i32, ptr, %struct.CRYPTO_REF_COUNT }
%struct.CRYPTO_REF_COUNT = type { i32 }

@.str.2 = private unnamed_addr constant [31 x i8] c"../openssl/test/tls-provider.c\00", align 1
@__func__.xorx_spki_pub_to_der = private unnamed_addr constant [21 x i8] c"xorx_spki_pub_to_der\00", align 1

; Function Attrs: nounwind uwtable
define internal i32 @xorx_spki_pub_to_der(ptr noundef %0, ptr noundef %1) #0 {
  %3 = alloca i32, align 4
  %4 = alloca ptr, align 8
  %5 = alloca ptr, align 8
  %6 = alloca ptr, align 8
  %7 = alloca ptr, align 8
  %8 = alloca i32, align 4
  %9 = alloca i32, align 4
  store ptr %0, ptr %4, align 8, !tbaa !13
  store ptr %1, ptr %5, align 8, !tbaa !93
  call void @llvm.lifetime.start.p0(i64 8, ptr %6) #8
  %10 = load ptr, ptr %4, align 8, !tbaa !13
  store ptr %10, ptr %6, align 8, !tbaa !41
  call void @llvm.lifetime.start.p0(i64 8, ptr %7) #8
  call void @llvm.lifetime.start.p0(i64 4, ptr %8) #8
  %11 = load ptr, ptr %6, align 8, !tbaa !41
  %12 = icmp eq ptr %11, null
  br i1 %12, label %13, label %14

13:                                               ; preds = %2
  call void @ERR_new()
  call void @ERR_set_debug(ptr noundef @.str.2, i32 noundef 1666, ptr noundef @__func__.xorx_spki_pub_to_der)
  call void (i32, i32, ptr, ...) @ERR_set_error(i32 noundef 128, i32 noundef 786690, ptr noundef null)
  store i32 0, ptr %3, align 4
  store i32 1, ptr %9, align 4
  br label %26

14:                                               ; preds = %2
  %15 = load ptr, ptr %6, align 8, !tbaa !41
  %16 = getelementptr inbounds nuw %struct.xorkey_st, ptr %15, i32 0, i32 1
  %17 = getelementptr inbounds [32 x i8], ptr %16, i64 0, i64 0
  store i32 32, ptr %8, align 4, !tbaa !27
  %18 = call noalias ptr @CRYPTO_memdup(ptr noundef %17, i64 noundef 32, ptr noundef @.str.2, i32 noundef 1670)
  store ptr %18, ptr %7, align 8, !tbaa !30
  %19 = load ptr, ptr %7, align 8, !tbaa !30
  %20 = icmp eq ptr %19, null
  br i1 %20, label %21, label %22

21:                                               ; preds = %14
  call void @ERR_new()
  call void @ERR_set_debug(ptr noundef @.str.2, i32 noundef 1672, ptr noundef @__func__.xorx_spki_pub_to_der)
  call void (i32, i32, ptr, ...) @ERR_set_error(i32 noundef 128, i32 noundef 786688, ptr noundef null)
  store i32 0, ptr %3, align 4
  store i32 1, ptr %9, align 4
  br label %26

22:                                               ; preds = %14
  %23 = load ptr, ptr %7, align 8, !tbaa !30
  %24 = load ptr, ptr %5, align 8, !tbaa !93
  store ptr %23, ptr %24, align 8, !tbaa !30
  %25 = load i32, ptr %8, align 4, !tbaa !27
  store i32 %25, ptr %3, align 4
  store i32 1, ptr %9, align 4
  br label %26

26:                                               ; preds = %22, %21, %13
  call void @llvm.lifetime.end.p0(i64 4, ptr %8) #8
  call void @llvm.lifetime.end.p0(i64 8, ptr %7) #8
  call void @llvm.lifetime.end.p0(i64 8, ptr %6) #8
  %27 = load i32, ptr %3, align 4
  ret i32 %27
}