; Function Attrs: nounwind uwtable
define internal range(i32 0, 33) i32 @xorx_spki_pub_to_der(ptr noundef %0, ptr noundef writeonly captures(none) %1) #0 {
  %3 = icmp eq ptr %0, null
  br i1 %3, label %4, label %5

4:                                                ; preds = %2
  tail call void @ERR_new() #16
  tail call void @ERR_set_debug(ptr noundef nonnull @.str.2, i32 noundef 1666, ptr noundef nonnull @__func__.xorx_spki_pub_to_der) #16
  tail call void (i32, i32, ptr, ...) @ERR_set_error(i32 noundef 128, i32 noundef 786690, ptr noundef null) #16
  br label %11

5:                                                ; preds = %2
  %6 = getelementptr inbounds nuw i8, ptr %0, i64 32
  %7 = tail call noalias ptr @CRYPTO_memdup(ptr noundef nonnull %6, i64 noundef 32, ptr noundef nonnull @.str.2, i32 noundef 1670) #16
  %8 = icmp eq ptr %7, null
  br i1 %8, label %9, label %10

9:                                                ; preds = %5
  tail call void @ERR_new() #16
  tail call void @ERR_set_debug(ptr noundef nonnull @.str.2, i32 noundef 1672, ptr noundef nonnull @__func__.xorx_spki_pub_to_der) #16
  tail call void (i32, i32, ptr, ...) @ERR_set_error(i32 noundef 128, i32 noundef 786688, ptr noundef null) #16
  br label %11

10:                                               ; preds = %5
  store ptr %7, ptr %1, align 8, !tbaa !25
  br label %11

11:                                               ; preds = %10, %9, %4
  %.0 = phi i32 [ 0, %4 ], [ 0, %9 ], [ 32, %10 ]
  ret i32 %.0
}